target datalayout = "e-m:e-p270:32:32-p271:32:32-p272:64:64-i64:64-i128:128-f80:128-n8:16:32:64-S128"
target triple = "x86_64-unknown-linux-gnu"

%"class.Imath_3_2::Vec3" = type { float, float, float }
%"class.std::mutex" = type { %"class.std::__mutex_base" }
%"class.std::__mutex_base" = type { %union.pthread_mutex_t }
%union.pthread_mutex_t = type { %struct.__pthread_mutex_s }
%struct.__pthread_mutex_s = type { i32, i32, i32, i32, i32, i16, i16, %struct.__pthread_internal_list }
%struct.__pthread_internal_list = type { ptr, ptr }
%"class.Imf_3_2::RgbaInputFile::FromYca" = type { %"class.std::mutex", ptr, i8, i32, i32, i32, i32, i32, i32, i32, %"class.Imath_3_2::Vec3", ptr, [29 x ptr], [3 x ptr], ptr, ptr, i64, i64 }

; Function Attrs: mustprogress nounwind uwtable
define linkonce_odr hidden noundef i32 @_ZN9Imath_3_24divpEii(i32 noundef %x, i32 noundef %y) #5 comdat {
entry:
  %x.addr = alloca i32, align 4
  %y.addr = alloca i32, align 4
  store i32 %x, ptr %x.addr, align 4
  store i32 %y, ptr %y.addr, align 4
  %0 = load i32, ptr %x.addr, align 4
  %cmp = icmp sge i32 %0, 0
  br i1 %cmp, label %cond.true, label %cond.false5

cond.true:                                        ; preds = %entry
  %1 = load i32, ptr %y.addr, align 4
  %cmp1 = icmp sge i32 %1, 0
  br i1 %cmp1, label %cond.true2, label %cond.false

cond.true2:                                       ; preds = %cond.true
  %2 = load i32, ptr %x.addr, align 4
  %3 = load i32, ptr %y.addr, align 4
  %div = sdiv i32 %2, %3
  br label %cond.end

cond.false:                                       ; preds = %cond.true
  %4 = load i32, ptr %x.addr, align 4
  %5 = load i32, ptr %y.addr, align 4
  %sub = sub nsw i32 0, %5
  %div3 = sdiv i32 %4, %sub
  %sub4 = sub nsw i32 0, %div3
  br label %cond.end

cond.end:                                         ; preds = %cond.false, %cond.true2
  %cond = phi i32 [ %div, %cond.true2 ], [ %sub4, %cond.false ]
  br label %cond.end20

cond.false5:                                      ; preds = %entry
  %6 = load i32, ptr %y.addr, align 4
  %cmp6 = icmp sge i32 %6, 0
  br i1 %cmp6, label %cond.true7, label %cond.false12

cond.true7:                                       ; preds = %cond.false5
  %7 = load i32, ptr %y.addr, align 4
  %sub8 = sub nsw i32 %7, 1
  %8 = load i32, ptr %x.addr, align 4
  %sub9 = sub nsw i32 %sub8, %8
  %9 = load i32, ptr %y.addr, align 4
  %div10 = sdiv i32 %sub9, %9
  %sub11 = sub nsw i32 0, %div10
  br label %cond.end18

cond.false12:                                     ; preds = %cond.false5
  %10 = load i32, ptr %y.addr, align 4
  %sub13 = sub nsw i32 0, %10
  %sub14 = sub nsw i32 %sub13, 1
  %11 = load i32, ptr %x.addr, align 4
  %sub15 = sub nsw i32 %sub14, %11
  %12 = load i32, ptr %y.addr, align 4
  %sub16 = sub nsw i32 0, %12
  %div17 = sdiv i32 %sub15, %sub16
  br label %cond.end18

cond.end18:                                       ; preds = %cond.false12, %cond.true7
  %cond19 = phi i32 [ %sub11, %cond.true7 ], [ %div17, %cond.false12 ]
  br label %cond.end20

cond.end20:                                       ; preds = %cond.end18, %cond.end
  %cond21 = phi i32 [ %cond, %cond.end ], [ %cond19, %cond.end18 ]
  ret i32 %cond21
}

; Function Attrs: mustprogress nounwind uwtable
define linkonce_odr hidden noundef i32 @_ZN9Imath_3_24modpEii(i32 noundef %x, i32 noundef %y) #5 comdat {
entry:
  %x.addr = alloca i32, align 4
  %y.addr = alloca i32, align 4
  store i32 %x, ptr %x.addr, align 4
  store i32 %y, ptr %y.addr, align 4
  %0 = load i32, ptr %x.addr, align 4
  %1 = load i32, ptr %y.addr, align 4
  %2 = load i32, ptr %x.addr, align 4
  %3 = load i32, ptr %y.addr, align 4
  %call = call noundef i32 @_ZN9Imath_3_24divpEii(i32 noundef %2, i32 noundef %3) #3
  %mul = mul nsw i32 %1, %call
  %sub = sub nsw i32 %0, %mul
  ret i32 %sub
}

; Function Attrs: mustprogress nounwind uwtable
define hidden void @_ZN7Imf_3_213RgbaInputFile7FromYca10rotateBuf1Ei(ptr noundef nonnull align 8 dereferenceable(392) %this, i32 noundef %d) #5 align 2 {
entry:
  %this.addr = alloca ptr, align 8
  %d.addr = alloca i32, align 4
  %tmp = alloca [29 x ptr], align 16
  %i = alloca i32, align 4
  %i4 = alloca i32, align 4
  store ptr %this, ptr %this.addr, align 8
  store i32 %d, ptr %d.addr, align 4
  %this1 = load ptr, ptr %this.addr, align 8
  %0 = load i32, ptr %d.addr, align 4
  %call = call noundef i32 @_ZN9Imath_3_24modpEii(i32 noundef %0, i32 noundef 29) #3
  store i32 %call, ptr %d.addr, align 4
  store i32 0, ptr %i, align 4
  br label %for.cond

for.cond:                                         ; preds = %for.inc, %entry
  %1 = load i32, ptr %i, align 4
  %cmp = icmp slt i32 %1, 29
  br i1 %cmp, label %for.body, label %for.end

for.body:                                         ; preds = %for.cond
  %_buf1 = getelementptr inbounds %"class.Imf_3_2::RgbaInputFile::FromYca", ptr %this1, i32 0, i32 12
  %2 = load i32, ptr %i, align 4
  %idxprom = sext i32 %2 to i64
  %arrayidx = getelementptr inbounds [29 x ptr], ptr %_buf1, i64 0, i64 %idxprom
  %3 = load ptr, ptr %arrayidx, align 8
  %4 = load i32, ptr %i, align 4
  %idxprom2 = sext i32 %4 to i64
  %arrayidx3 = getelementptr inbounds [29 x ptr], ptr %tmp, i64 0, i64 %idxprom2
  store ptr %3, ptr %arrayidx3, align 8
  br label %for.inc

for.inc:                                          ; preds = %for.body
  %5 = load i32, ptr %i, align 4
  %inc = add nsw i32 %5, 1
  store i32 %inc, ptr %i, align 4
  br label %for.cond, !llvm.loop !25

for.end:                                          ; preds = %for.cond
  store i32 0, ptr %i4, align 4
  br label %for.cond5

for.cond5:                                        ; preds = %for.inc13, %for.end
  %6 = load i32, ptr %i4, align 4
  %cmp6 = icmp slt i32 %6, 29
  br i1 %cmp6, label %for.body7, label %for.end15

for.body7:                                        ; preds = %for.cond5
  %7 = load i32, ptr %i4, align 4
  %8 = load i32, ptr %d.addr, align 4
  %add = add nsw i32 %7, %8
  %rem = srem i32 %add, 29
  %idxprom8 = sext i32 %rem to i64
  %arrayidx9 = getelementptr inbounds [29 x ptr], ptr %tmp, i64 0, i64 %idxprom8
  %9 = load ptr, ptr %arrayidx9, align 8
  %_buf110 = getelementptr inbounds %"class.Imf_3_2::RgbaInputFile::FromYca", ptr %this1, i32 0, i32 12
  %10 = load i32, ptr %i4, align 4
  %idxprom11 = sext i32 %10 to i64
  %arrayidx12 = getelementptr inbounds [29 x ptr], ptr %_buf110, i64 0, i64 %idxprom11
  store ptr %9, ptr %arrayidx12, align 8
  br label %for.inc13

for.inc13:                                        ; preds = %for.body7
  %11 = load i32, ptr %i4, align 4
  %inc14 = add nsw i32 %11, 1
  store i32 %inc14, ptr %i4, align 4
  br label %for.cond5, !llvm.loop !26

for.end15:                                        ; preds = %for.cond5
  ret void
}